; Function Attrs: mustprogress uwtable
define void @_ZN10MainWindow17applyDecorateModeEv(ptr noundef nonnull align 8 dereferenceable(1376) %0) local_unnamed_addr #9 align 2 personality ptr @__gxx_personality_v0 {
_ZNK10MainWindow3GLAEv.exit:
  %1 = alloca %class.QString, align 8
  %2 = getelementptr inbounds i8, ptr %0, i64 1368
  %3 = load ptr, ptr %2, align 8, !nonnull !61, !noundef !61
  %4 = getelementptr inbounds i8, ptr %3, i64 256
  %5 = load ptr, ptr %4, align 8
  %6 = getelementptr inbounds i8, ptr %5, i64 56
  %7 = load ptr, ptr %6, align 8
  %8 = icmp eq ptr %7, null
  br i1 %8, label %_ZN6GLArea2mmEv.exit.thread, label %_ZN6GLArea2mmEv.exit

_ZN6GLArea2mmEv.exit:                             ; preds = %_ZNK10MainWindow3GLAEv.exit
  %9 = getelementptr inbounds i8, ptr %7, i64 48
  %10 = tail call noundef ptr @_ZN12MeshDocument2mmEv(ptr noundef nonnull align 8 dereferenceable(192) %9)
  %11 = icmp eq ptr %10, null
  br i1 %11, label %_ZN6GLArea2mmEv.exit.thread, label %12

12:                                               ; preds = %_ZN6GLArea2mmEv.exit
  %13 = tail call noundef ptr @_ZNK7QObject6senderEv(ptr noundef nonnull align 8 dereferenceable(16) %0)
  %14 = tail call noundef ptr @_ZNK11QMetaObject4castEP7QObject(ptr noundef nonnull align 8 dereferenceable(48) @_ZN7QAction16staticMetaObjectE, ptr noundef %13)
  %15 = getelementptr inbounds i8, ptr %14, i64 8
  %16 = load ptr, ptr %15, align 8
  %17 = getelementptr inbounds i8, ptr %16, i64 16
  %18 = load ptr, ptr %17, align 8
  %.not.i6 = icmp eq ptr %18, null
  br i1 %.not.i6, label %_Z12qobject_castIP14DecoratePluginET_P7QObject.exit, label %19

19:                                               ; preds = %12
  %20 = load ptr, ptr %18, align 8
  %21 = getelementptr inbounds i8, ptr %20, i64 8
  %22 = load ptr, ptr %21, align 8
  %23 = tail call noundef ptr %22(ptr noundef nonnull align 8 dereferenceable(16) %18, ptr noundef nonnull @.str.62)
  br label %_Z12qobject_castIP14DecoratePluginET_P7QObject.exit

_Z12qobject_castIP14DecoratePluginET_P7QObject.exit: ; preds = %12, %19
  %24 = phi ptr [ %23, %19 ], [ null, %12 ]
  %25 = load ptr, ptr %2, align 8
  %.not.i7 = icmp eq ptr %25, null
  br i1 %.not.i7, label %_ZNK10MainWindow3GLAEv.exit9, label %26

26:                                               ; preds = %_Z12qobject_castIP14DecoratePluginET_P7QObject.exit
  %27 = getelementptr inbounds i8, ptr %25, i64 256
  %28 = load ptr, ptr %27, align 8
  br label %_ZNK10MainWindow3GLAEv.exit9

_ZNK10MainWindow3GLAEv.exit9:                     ; preds = %_Z12qobject_castIP14DecoratePluginET_P7QObject.exit, %26
  %.0.i8 = phi ptr [ %28, %26 ], [ null, %_Z12qobject_castIP14DecoratePluginET_P7QObject.exit ]
  %29 = load ptr, ptr %24, align 8
  %30 = getelementptr inbounds i8, ptr %29, i64 32
  %31 = load ptr, ptr %30, align 8
  call void %31(ptr dead_on_unwind nonnull writable sret(%class.QString) align 8 %1, ptr noundef nonnull align 8 dereferenceable(32) %24, ptr noundef nonnull %14)
  invoke void @_ZN6GLArea15toggleDecoratorE7QString(ptr noundef nonnull align 8 dereferenceable(1676) %.0.i8, ptr noundef nonnull %1)
          to label %32 unwind label %47

32:                                               ; preds = %_ZNK10MainWindow3GLAEv.exit9
  %33 = load ptr, ptr %1, align 8
  %34 = load atomic i32, ptr %33 monotonic, align 4
  switch i32 %34, label %_ZN9QtPrivate8RefCount5derefEv.exit.i [
    i32 0, label %_ZN9QtPrivate8RefCount5derefEv.exit.thread2.i
    i32 -1, label %_ZN7QStringD2Ev.exit
  ]

_ZN9QtPrivate8RefCount5derefEv.exit.i:            ; preds = %32
  %35 = atomicrmw sub ptr %33, i32 1 seq_cst, align 4
  %.not.i10 = icmp eq i32 %35, 1
  br i1 %.not.i10, label %_ZN9QtPrivate8RefCount5derefEv.exit._ZN9QtPrivate8RefCount5derefEv.exit.thread2_crit_edge.i, label %_ZN7QStringD2Ev.exit

_ZN9QtPrivate8RefCount5derefEv.exit._ZN9QtPrivate8RefCount5derefEv.exit.thread2_crit_edge.i: ; preds = %_ZN9QtPrivate8RefCount5derefEv.exit.i
  %.pre.i = load ptr, ptr %1, align 8
  br label %_ZN9QtPrivate8RefCount5derefEv.exit.thread2.i

_ZN9QtPrivate8RefCount5derefEv.exit.thread2.i:    ; preds = %_ZN9QtPrivate8RefCount5derefEv.exit._ZN9QtPrivate8RefCount5derefEv.exit.thread2_crit_edge.i, %32
  %36 = phi ptr [ %.pre.i, %_ZN9QtPrivate8RefCount5derefEv.exit._ZN9QtPrivate8RefCount5derefEv.exit.thread2_crit_edge.i ], [ %33, %32 ]
  call void @_ZN10QArrayData10deallocateEPS_mm(ptr noundef %36, i64 noundef 2, i64 noundef 8) #26
  br label %_ZN7QStringD2Ev.exit

_ZN7QStringD2Ev.exit:                             ; preds = %32, %_ZN9QtPrivate8RefCount5derefEv.exit.i, %_ZN9QtPrivate8RefCount5derefEv.exit.thread2.i
  call void @_ZN10MainWindow11updateMenusEv(ptr noundef nonnull align 8 dereferenceable(1376) %0)
  %37 = getelementptr inbounds i8, ptr %0, i64 160
  %38 = load ptr, ptr %37, align 8
  call void @_ZN11LayerDialog23updateDecoratorParsViewEv(ptr noundef nonnull align 8 dereferenceable(256) %38)
  %39 = load ptr, ptr %37, align 8
  %40 = load ptr, ptr %2, align 8
  %.not.i11 = icmp eq ptr %40, null
  %41 = getelementptr inbounds i8, ptr %40, i64 48
  %spec.select.i = select i1 %.not.i11, ptr null, ptr %41
  %42 = getelementptr inbounds i8, ptr %spec.select.i, i64 16
  call void @_ZN11LayerDialog9updateLogER11GLLogStream(ptr noundef nonnull align 8 dereferenceable(256) %39, ptr noundef nonnull align 8 dereferenceable(40) %42)
  %43 = load ptr, ptr %37, align 8
  call void @_ZN7QWidget6updateEv(ptr noundef nonnull align 8 dereferenceable(48) %43)
  %44 = load ptr, ptr %2, align 8, !nonnull !61, !noundef !61
  %45 = getelementptr inbounds i8, ptr %44, i64 256
  %46 = load ptr, ptr %45, align 8
  call void @_ZN7QWidget6updateEv(ptr noundef nonnull align 8 dereferenceable(48) %46)
  br label %_ZN6GLArea2mmEv.exit.thread

_ZN6GLArea2mmEv.exit.thread:                      ; preds = %_ZNK10MainWindow3GLAEv.exit, %_ZN6GLArea2mmEv.exit, %_ZN7QStringD2Ev.exit
  ret void

47:                                               ; preds = %_ZNK10MainWindow3GLAEv.exit9
  %48 = landingpad { ptr, i32 }
          cleanup
  call void @_ZN7QStringD2Ev(ptr noundef nonnull align 8 dereferenceable(8) %1) #26
  resume { ptr, i32 } %48
}